; Function Attrs: mustprogress uwtable
define internal void @"_ZN4LuauL8fnVisitVIZNS_16toStringDetailedEPKNS_11TypePackVarERNS_15ToStringOptionsEE3$_1KNS_16VariadicTypePackEEEvRT_PNSt11conditionalIXsr3stdE10is_const_vIT0_EEKvvE4typeE"(ptr noundef nonnull readonly align 8 captures(none) dereferenceable(16) %0, ptr noundef readonly captures(none) %1) #6 {
  %3 = alloca %"struct.Luau::VariadicTypePack", align 8
  %.sroa.0.0.copyload = load ptr, ptr %1, align 8, !tbaa !158
  %.sroa.2.0..sroa_idx = getelementptr inbounds nuw i8, ptr %1, i64 8
  %.sroa.2.0.copyload = load i8, ptr %.sroa.2.0..sroa_idx, align 8, !tbaa !156
  %.val = load ptr, ptr %0, align 8, !tbaa !711
  %4 = getelementptr inbounds nuw i8, ptr %0, i64 8
  %.val2 = load ptr, ptr %4, align 8, !tbaa !253
  call void @llvm.lifetime.start.p0(i64 16, ptr nonnull %3)
  store ptr %.sroa.0.0.copyload, ptr %3, align 8
  %5 = getelementptr inbounds nuw i8, ptr %3, i64 8
  store i8 %.sroa.2.0.copyload, ptr %5, align 8
  call void @_ZN4Luau19TypePackStringifierclEPKNS_11TypePackVarERKNS_16VariadicTypePackE(ptr noundef nonnull align 8 dereferenceable(36) %.val, ptr noundef %.val2, ptr noundef nonnull align 8 dereferenceable(9) %3)
  call void @llvm.lifetime.end.p0(i64 16, ptr nonnull %3)
  ret void
}